; ModuleID = '2/60.c'
source_filename = "2/60.c"
target datalayout = "e-m:e-p270:32:32-p271:32:32-p272:64:64-i64:64-f80:128-n8:16:32:64-S128"
target triple = "x86_64-pc-linux-gnu"

@.str = private unnamed_addr constant [3 x i8] c"%d\00", align 1
@.str.1 = private unnamed_addr constant [3 x i8] c"%s\00", align 1
@.str.2 = private unnamed_addr constant [4 x i8] c"%c\0A\00", align 1
@.str.3 = private unnamed_addr constant [4 x i8] c"%d\0A\00", align 1

; Function Attrs: noinline nounwind uwtable
define dso_local void @main() #0 {
  %1 = alloca i32, align 4
  %2 = alloca i32, align 4
  %3 = alloca i32, align 4
  %4 = alloca i32, align 4
  %5 = alloca i32, align 4
  %6 = alloca i32, align 4
  %7 = alloca i32*, align 8
  %8 = alloca [100 x [1100 x i32]], align 16
  %9 = alloca i32, align 4
  %10 = alloca [100 x i32], align 16
  %11 = alloca [30 x i8], align 16
  %12 = bitcast [100 x [1100 x i32]]* %8 to i8*
  call void @llvm.memset.p0i8.i64(i8* align 16 %12, i8 0, i64 440000, i1 false)
  store i32 0, i32* %9, align 4
  %13 = bitcast [100 x i32]* %10 to i8*
  call void @llvm.memset.p0i8.i64(i8* align 16 %13, i8 0, i64 400, i1 false)
  %14 = call i32 (i8*, ...) @__isoc99_scanf(i8* getelementptr inbounds ([3 x i8], [3 x i8]* @.str, i64 0, i64 0), i32* %6)
  store i32 1, i32* %4, align 4
  br label %15

15:                                               ; preds = %78, %0
  %16 = load i32, i32* %4, align 4
  %17 = load i32, i32* %6, align 4
  %18 = icmp sle i32 %16, %17
  br i1 %18, label %19, label %81

19:                                               ; preds = %15
  %20 = call i32 (i8*, ...) @__isoc99_scanf(i8* getelementptr inbounds ([3 x i8], [3 x i8]* @.str, i64 0, i64 0), i32* %2)
  %21 = getelementptr inbounds [30 x i8], [30 x i8]* %11, i64 0, i64 0
  %22 = call i32 (i8*, ...) @__isoc99_scanf(i8* getelementptr inbounds ([3 x i8], [3 x i8]* @.str.1, i64 0, i64 0), i8* %21)
  store i32 0, i32* %1, align 4
  br label %23

23:                                               ; preds = %74, %19
  %24 = load i32, i32* %1, align 4
  %25 = sext i32 %24 to i64
  %26 = getelementptr inbounds [30 x i8], [30 x i8]* %11, i64 0, i64 %25
  %27 = load i8, i8* %26, align 1
  %28 = sext i8 %27 to i32
  %29 = icmp ne i32 %28, 0
  br i1 %29, label %30, label %77

30:                                               ; preds = %23
  %31 = load i32, i32* %1, align 4
  %32 = sext i32 %31 to i64
  %33 = getelementptr inbounds [30 x i8], [30 x i8]* %11, i64 0, i64 %32
  %34 = load i8, i8* %33, align 1
  %35 = sext i8 %34 to i64
  %36 = getelementptr inbounds [100 x i32], [100 x i32]* %10, i64 0, i64 %35
  %37 = load i32, i32* %36, align 4
  %38 = add nsw i32 %37, 1
  store i32 %38, i32* %36, align 4
  %39 = load i32, i32* %2, align 4
  %40 = load i32, i32* %1, align 4
  %41 = sext i32 %40 to i64
  %42 = getelementptr inbounds [30 x i8], [30 x i8]* %11, i64 0, i64 %41
  %43 = load i8, i8* %42, align 1
  %44 = sext i8 %43 to i64
  %45 = getelementptr inbounds [100 x [1100 x i32]], [100 x [1100 x i32]]* %8, i64 0, i64 %44
  %46 = load i32, i32* %1, align 4
  %47 = sext i32 %46 to i64
  %48 = getelementptr inbounds [30 x i8], [30 x i8]* %11, i64 0, i64 %47
  %49 = load i8, i8* %48, align 1
  %50 = sext i8 %49 to i64
  %51 = getelementptr inbounds [100 x i32], [100 x i32]* %10, i64 0, i64 %50
  %52 = load i32, i32* %51, align 4
  %53 = sext i32 %52 to i64
  %54 = getelementptr inbounds [1100 x i32], [1100 x i32]* %45, i64 0, i64 %53
  store i32 %39, i32* %54, align 4
  %55 = load i32, i32* %1, align 4
  %56 = sext i32 %55 to i64
  %57 = getelementptr inbounds [30 x i8], [30 x i8]* %11, i64 0, i64 %56
  %58 = load i8, i8* %57, align 1
  %59 = sext i8 %58 to i64
  %60 = getelementptr inbounds [100 x i32], [100 x i32]* %10, i64 0, i64 %59
  %61 = load i32, i32* %60, align 4
  %62 = load i32, i32* %9, align 4
  %63 = sext i32 %62 to i64
  %64 = getelementptr inbounds [100 x i32], [100 x i32]* %10, i64 0, i64 %63
  %65 = load i32, i32* %64, align 4
  %66 = icmp sgt i32 %61, %65
  br i1 %66, label %67, label %73

67:                                               ; preds = %30
  %68 = load i32, i32* %1, align 4
  %69 = sext i32 %68 to i64
  %70 = getelementptr inbounds [30 x i8], [30 x i8]* %11, i64 0, i64 %69
  %71 = load i8, i8* %70, align 1
  %72 = sext i8 %71 to i32
  store i32 %72, i32* %9, align 4
  br label %73

73:                                               ; preds = %67, %30
  br label %74

74:                                               ; preds = %73
  %75 = load i32, i32* %1, align 4
  %76 = add nsw i32 %75, 1
  store i32 %76, i32* %1, align 4
  br label %23

77:                                               ; preds = %23
  br label %78

78:                                               ; preds = %77
  %79 = load i32, i32* %4, align 4
  %80 = add nsw i32 %79, 1
  store i32 %80, i32* %4, align 4
  br label %15

81:                                               ; preds = %15
  %82 = load i32, i32* %9, align 4
  %83 = trunc i32 %82 to i8
  %84 = sext i8 %83 to i32
  %85 = call i32 (i8*, ...) @printf(i8* getelementptr inbounds ([4 x i8], [4 x i8]* @.str.2, i64 0, i64 0), i32 %84)
  %86 = load i32, i32* %9, align 4
  %87 = sext i32 %86 to i64
  %88 = getelementptr inbounds [100 x i32], [100 x i32]* %10, i64 0, i64 %87
  %89 = load i32, i32* %88, align 4
  %90 = call i32 (i8*, ...) @printf(i8* getelementptr inbounds ([4 x i8], [4 x i8]* @.str.3, i64 0, i64 0), i32 %89)
  store i32 1, i32* %1, align 4
  br label %91

91:                                               ; preds = %107, %81
  %92 = load i32, i32* %1, align 4
  %93 = load i32, i32* %9, align 4
  %94 = sext i32 %93 to i64
  %95 = getelementptr inbounds [100 x i32], [100 x i32]* %10, i64 0, i64 %94
  %96 = load i32, i32* %95, align 4
  %97 = icmp sle i32 %92, %96
  br i1 %97, label %98, label %110

98:                                               ; preds = %91
  %99 = load i32, i32* %9, align 4
  %100 = sext i32 %99 to i64
  %101 = getelementptr inbounds [100 x [1100 x i32]], [100 x [1100 x i32]]* %8, i64 0, i64 %100
  %102 = load i32, i32* %1, align 4
  %103 = sext i32 %102 to i64
  %104 = getelementptr inbounds [1100 x i32], [1100 x i32]* %101, i64 0, i64 %103
  %105 = load i32, i32* %104, align 4
  %106 = call i32 (i8*, ...) @printf(i8* getelementptr inbounds ([4 x i8], [4 x i8]* @.str.3, i64 0, i64 0), i32 %105)
  br label %107

107:                                              ; preds = %98
  %108 = load i32, i32* %1, align 4
  %109 = add nsw i32 %108, 1
  store i32 %109, i32* %1, align 4
  br label %91

110:                                              ; preds = %91
  ret void
}

; Function Attrs: argmemonly nounwind willreturn
declare void @llvm.memset.p0i8.i64(i8* nocapture writeonly, i8, i64, i1 immarg) #1

declare dso_local i32 @__isoc99_scanf(i8*, ...) #2

declare dso_local i32 @printf(i8*, ...) #2


!llvm.module.flags = !{!0}
!llvm.ident = !{!1}

!0 = !{i32 1, !"wchar_size", i32 4}
!1 = !{!"clang version 10.0.0-4ubuntu1 "}
