; ModuleID = 'source-C-CXX/1/60.c'
source_filename = "source-C-CXX/1/60.c"
target datalayout = "e-m:e-p270:32:32-p271:32:32-p272:64:64-i64:64-f80:128-n8:16:32:64-S128"
target triple = "x86_64-pc-linux-gnu"

@.str = private unnamed_addr constant [3 x i8] c"%d\00", align 1
@.str.1 = private unnamed_addr constant [3 x i8] c"%s\00", align 1
@.str.2 = private unnamed_addr constant [4 x i8] c"%c\0A\00", align 1
@.str.3 = private unnamed_addr constant [4 x i8] c"%d\0A\00", align 1

; Function Attrs: nofree nounwind sspstrong uwtable
define dso_local void @main() local_unnamed_addr #0 {
  %1 = alloca i32, align 4
  %2 = alloca i32, align 4
  %3 = alloca [100 x [1100 x i32]], align 16
  %4 = alloca [100 x i32], align 16
  %5 = alloca [30 x i8], align 16
  %6 = bitcast i32* %1 to i8*
  call void @llvm.lifetime.start.p0i8(i64 4, i8* nonnull %6) #4
  %7 = bitcast i32* %2 to i8*
  call void @llvm.lifetime.start.p0i8(i64 4, i8* nonnull %7) #4
  %8 = bitcast [100 x [1100 x i32]]* %3 to i8*
  call void @llvm.lifetime.start.p0i8(i64 440000, i8* nonnull %8) #4
  call void @llvm.memset.p0i8.i64(i8* noundef nonnull align 16 dereferenceable(440000) %8, i8 0, i64 440000, i1 false)
  %9 = bitcast [100 x i32]* %4 to i8*
  call void @llvm.lifetime.start.p0i8(i64 400, i8* nonnull %9) #4
  call void @llvm.memset.p0i8.i64(i8* noundef nonnull align 16 dereferenceable(400) %9, i8 0, i64 400, i1 false)
  %10 = getelementptr inbounds [30 x i8], [30 x i8]* %5, i64 0, i64 0
  call void @llvm.lifetime.start.p0i8(i64 30, i8* nonnull %10) #4
  %11 = call i32 (i8*, ...) @__isoc99_scanf(i8* getelementptr inbounds ([3 x i8], [3 x i8]* @.str, i64 0, i64 0), i32* nonnull %2)
  %12 = load i32, i32* %2, align 4, !tbaa !5
  %13 = icmp slt i32 %12, 1
  br i1 %13, label %47, label %14

14:                                               ; preds = %0, %42
  %15 = phi i32 [ %43, %42 ], [ 0, %0 ]
  %16 = phi i32 [ %44, %42 ], [ 1, %0 ]
  %17 = call i32 (i8*, ...) @__isoc99_scanf(i8* getelementptr inbounds ([3 x i8], [3 x i8]* @.str, i64 0, i64 0), i32* nonnull %1)
  %18 = call i32 (i8*, ...) @__isoc99_scanf(i8* getelementptr inbounds ([3 x i8], [3 x i8]* @.str.1, i64 0, i64 0), i8* nonnull %10)
  %19 = load i32, i32* %1, align 4
  %20 = load i8, i8* %10, align 16, !tbaa !9
  %21 = icmp eq i8 %20, 0
  br i1 %21, label %42, label %22

22:                                               ; preds = %14, %22
  %23 = phi i64 [ %38, %22 ], [ 0, %14 ]
  %24 = phi i8 [ %40, %22 ], [ %20, %14 ]
  %25 = phi i32 [ %37, %22 ], [ %15, %14 ]
  %26 = sext i8 %24 to i64
  %27 = getelementptr inbounds [100 x i32], [100 x i32]* %4, i64 0, i64 %26
  %28 = load i32, i32* %27, align 4, !tbaa !5
  %29 = add nsw i32 %28, 1
  store i32 %29, i32* %27, align 4, !tbaa !5
  %30 = sext i32 %29 to i64
  %31 = getelementptr inbounds [100 x [1100 x i32]], [100 x [1100 x i32]]* %3, i64 0, i64 %26, i64 %30
  store i32 %19, i32* %31, align 4, !tbaa !5
  %32 = sext i32 %25 to i64
  %33 = getelementptr inbounds [100 x i32], [100 x i32]* %4, i64 0, i64 %32
  %34 = load i32, i32* %33, align 4, !tbaa !5
  %35 = icmp slt i32 %28, %34
  %36 = sext i8 %24 to i32
  %37 = select i1 %35, i32 %25, i32 %36
  %38 = add nuw nsw i64 %23, 1
  %39 = getelementptr inbounds [30 x i8], [30 x i8]* %5, i64 0, i64 %38
  %40 = load i8, i8* %39, align 1, !tbaa !9
  %41 = icmp eq i8 %40, 0
  br i1 %41, label %42, label %22, !llvm.loop !10

42:                                               ; preds = %22, %14
  %43 = phi i32 [ %15, %14 ], [ %37, %22 ]
  %44 = add nuw nsw i32 %16, 1
  %45 = load i32, i32* %2, align 4, !tbaa !5
  %46 = icmp slt i32 %16, %45
  br i1 %46, label %14, label %47, !llvm.loop !12

47:                                               ; preds = %42, %0
  %48 = phi i32 [ 0, %0 ], [ %43, %42 ]
  %49 = shl i32 %48, 24
  %50 = ashr exact i32 %49, 24
  %51 = call i32 (i8*, ...) @printf(i8* nonnull dereferenceable(1) getelementptr inbounds ([4 x i8], [4 x i8]* @.str.2, i64 0, i64 0), i32 %50)
  %52 = sext i32 %48 to i64
  %53 = getelementptr inbounds [100 x i32], [100 x i32]* %4, i64 0, i64 %52
  %54 = load i32, i32* %53, align 4, !tbaa !5
  %55 = call i32 (i8*, ...) @printf(i8* nonnull dereferenceable(1) getelementptr inbounds ([4 x i8], [4 x i8]* @.str.3, i64 0, i64 0), i32 %54)
  %56 = icmp slt i32 %54, 1
  br i1 %56, label %67, label %57

57:                                               ; preds = %47
  %58 = add nuw i32 %54, 1
  %59 = zext i32 %58 to i64
  br label %60

60:                                               ; preds = %57, %60
  %61 = phi i64 [ 1, %57 ], [ %65, %60 ]
  %62 = getelementptr inbounds [100 x [1100 x i32]], [100 x [1100 x i32]]* %3, i64 0, i64 %52, i64 %61
  %63 = load i32, i32* %62, align 4, !tbaa !5
  %64 = call i32 (i8*, ...) @printf(i8* nonnull dereferenceable(1) getelementptr inbounds ([4 x i8], [4 x i8]* @.str.3, i64 0, i64 0), i32 %63)
  %65 = add nuw nsw i64 %61, 1
  %66 = icmp eq i64 %65, %59
  br i1 %66, label %67, label %60, !llvm.loop !13

67:                                               ; preds = %60, %47
  call void @llvm.lifetime.end.p0i8(i64 30, i8* nonnull %10) #4
  call void @llvm.lifetime.end.p0i8(i64 400, i8* nonnull %9) #4
  call void @llvm.lifetime.end.p0i8(i64 440000, i8* nonnull %8) #4
  call void @llvm.lifetime.end.p0i8(i64 4, i8* nonnull %7) #4
  call void @llvm.lifetime.end.p0i8(i64 4, i8* nonnull %6) #4
  ret void
}

; Function Attrs: argmemonly mustprogress nofree nosync nounwind willreturn
declare void @llvm.lifetime.start.p0i8(i64 immarg, i8* nocapture) #1

; Function Attrs: argmemonly mustprogress nofree nounwind willreturn writeonly
declare void @llvm.memset.p0i8.i64(i8* nocapture writeonly, i8, i64, i1 immarg) #2

; Function Attrs: nofree nounwind
declare noundef i32 @__isoc99_scanf(i8* nocapture noundef readonly, ...) local_unnamed_addr #3

; Function Attrs: nofree nounwind
declare noundef i32 @printf(i8* nocapture noundef readonly, ...) local_unnamed_addr #3

; Function Attrs: argmemonly mustprogress nofree nosync nounwind willreturn
declare void @llvm.lifetime.end.p0i8(i64 immarg, i8* nocapture) #1


!llvm.module.flags = !{!0, !1, !2, !3}
!llvm.ident = !{!4}

!0 = !{i32 1, !"wchar_size", i32 4}
!1 = !{i32 7, !"PIC Level", i32 2}
!2 = !{i32 7, !"PIE Level", i32 2}
!3 = !{i32 7, !"uwtable", i32 1}
!4 = !{!"clang version 13.0.0"}
!5 = !{!6, !6, i64 0}
!6 = !{!"int", !7, i64 0}
!7 = !{!"omnipotent char", !8, i64 0}
!8 = !{!"Simple C/C++ TBAA"}
!9 = !{!7, !7, i64 0}
!10 = distinct !{!10, !11}
!11 = !{!"llvm.loop.mustprogress"}
!12 = distinct !{!12, !11}
!13 = distinct !{!13, !11}
